#include <math.h>
#include <stdio.h>
#include <stdlib.h>
#include <string.h>
#include <iostream>
using namespace std;

int main()
{
	int *p = {NULL}, a[100][100], z, m, n, i = 1, j = 0, s;
	cin >> z;
	while(i <= z)
	{
		s = 0;
		cin >> m >> n;
		p = *a;
		for(j = 0; j < m * n; j++)
		{
			cin >> *p++;
			if(j < n || j >= n * (m - 1) || j % n == 0 || (j + 1) % n == 0)
				s += *(p - 1);
		}
		cout << s << endl;
		i++;
	}
	return 0;
}

